Certificate:
    Data:
        Version: 3 (0x2)
        Serial Number:
            25:14:48:51:b9:af:3d:2c:2b:bf:ce:e4:e0:f7:d4:88
    Signature Algorithm: sha256WithRSAEncryption
        Issuer: CN=Enowars Router CA
        Validity
            Not Before: May 15 16:01:04 2019 GMT
            Not After : May 12 16:01:04 2029 GMT
        Subject: CN=router
        Subject Public Key Info:
            Public Key Algorithm: rsaEncryption
                Public-Key: (2048 bit)
                Modulus:
                    00:b6:77:85:c5:26:69:32:f1:80:8a:66:62:e9:0d:
                    81:5c:12:cd:65:73:07:6c:f2:d9:f0:06:90:27:99:
                    e5:b0:37:47:77:79:1d:94:4c:47:4d:cc:a1:7b:ed:
                    4e:b7:21:b0:ae:70:4a:b5:75:de:d1:53:6e:73:9f:
                    4e:14:9b:63:84:f8:20:65:81:9e:c1:38:79:3e:f7:
                    ba:34:0c:ad:52:1a:73:22:f1:a1:40:73:76:45:85:
                    83:68:3f:13:2f:69:9f:4a:35:ce:a4:d1:b0:f0:87:
                    8e:bb:2b:a8:1a:59:9b:fa:c2:18:17:32:5e:f6:c5:
                    20:aa:b7:1c:b6:d9:54:af:e4:1d:95:0d:7b:37:e0:
                    12:fc:e9:98:1f:e5:e0:68:62:32:26:1b:d6:5a:19:
                    aa:89:d2:01:1a:2f:8c:b0:07:38:c2:ba:a3:b5:3e:
                    2c:5f:f2:c4:a4:f5:58:92:7c:2f:aa:65:9f:92:a7:
                    78:c5:6d:8d:34:7b:6f:92:da:c2:5b:64:0c:ca:48:
                    1f:22:d8:6e:b5:06:fe:07:cc:b0:f2:da:94:3f:ac:
                    ba:95:52:49:0f:31:91:62:d5:b5:02:b8:b2:af:0e:
                    79:53:c4:fb:9e:29:99:38:c4:ba:2f:2f:84:6e:db:
                    13:c9:af:9a:7f:65:2a:1b:ab:7c:83:be:15:39:17:
                    c7:3f
                Exponent: 65537 (0x10001)
        X509v3 extensions:
            X509v3 Basic Constraints: 
                CA:FALSE
            X509v3 Subject Key Identifier: 
                86:9E:C0:18:73:6B:5D:6F:91:7F:9F:18:83:04:56:65:B3:00:C6:FC
            X509v3 Authority Key Identifier: 
                keyid:95:A7:35:BC:05:20:C0:14:CD:FB:59:5C:A8:D7:0D:67:D8:3C:37:80
                DirName:/CN=Enowars Router CA
                serial:EB:A1:92:16:10:C3:0B:60

            X509v3 Extended Key Usage: 
                TLS Web Client Authentication
            X509v3 Key Usage: 
                Digital Signature
    Signature Algorithm: sha256WithRSAEncryption
         65:4a:fc:e7:70:5f:55:52:eb:d5:55:95:47:ff:99:fa:99:8b:
         0b:3b:38:77:4d:9e:cb:49:f6:47:14:51:b2:93:6a:c6:90:1b:
         af:b2:fe:a5:4c:1b:9b:74:a4:d9:0b:2d:3c:b7:13:3f:2b:05:
         ce:3e:4d:36:69:d6:5b:23:ed:83:59:eb:7b:4d:53:48:a8:c2:
         d9:98:0e:33:a2:72:6f:eb:a3:0b:75:ea:4c:b9:a9:37:73:cd:
         32:32:eb:90:d0:f8:d4:68:6b:e1:d9:f3:1e:52:2b:12:a4:23:
         a8:e3:3b:f7:62:7a:7f:a8:73:87:40:48:6c:e1:a2:7c:57:dc:
         c4:5f:e8:ae:34:80:b4:16:3b:bd:ee:07:3f:c5:7c:49:fb:57:
         7c:15:77:07:19:7c:c4:88:ad:98:49:12:db:47:dd:45:66:66:
         5d:3f:6a:70:7b:7f:23:8e:1d:f0:1e:3e:24:3e:87:4c:7f:48:
         a6:85:86:c1:d4:cd:0f:63:40:45:66:d2:4c:1e:18:41:69:61:
         26:3a:07:a4:d6:f1:0c:73:21:23:8c:ed:88:82:fa:a5:41:08:
         55:90:5b:c9:af:64:c9:f7:a4:3d:01:85:c1:f5:a5:5e:27:35:
         9e:11:8e:44:3a:4b:ea:77:77:ae:f8:39:16:2e:0b:5a:5c:b4:
         e4:34:d4:d8
-----BEGIN CERTIFICATE-----
MIIDVTCCAj2gAwIBAgIQJRRIUbmvPSwrv87k4PfUiDANBgkqhkiG9w0BAQsFADAc
MRowGAYDVQQDDBFFbm93YXJzIFJvdXRlciBDQTAeFw0xOTA1MTUxNjAxMDRaFw0y
OTA1MTIxNjAxMDRaMBExDzANBgNVBAMMBnJvdXRlcjCCASIwDQYJKoZIhvcNAQEB
BQADggEPADCCAQoCggEBALZ3hcUmaTLxgIpmYukNgVwSzWVzB2zy2fAGkCeZ5bA3
R3d5HZRMR03MoXvtTrchsK5wSrV13tFTbnOfThSbY4T4IGWBnsE4eT73ujQMrVIa
cyLxoUBzdkWFg2g/Ey9pn0o1zqTRsPCHjrsrqBpZm/rCGBcyXvbFIKq3HLbZVK/k
HZUNezfgEvzpmB/l4GhiMiYb1loZqonSARovjLAHOMK6o7U+LF/yxKT1WJJ8L6pl
n5KneMVtjTR7b5LawltkDMpIHyLYbrUG/gfMsPLalD+supVSSQ8xkWLVtQK4sq8O
eVPE+54pmTjEui8vhG7bE8mvmn9lKhurfIO+FTkXxz8CAwEAAaOBnTCBmjAJBgNV
HRMEAjAAMB0GA1UdDgQWBBSGnsAYc2tdb5F/nxiDBFZlswDG/DBMBgNVHSMERTBD
gBSVpzW8BSDAFM37WVyo1w1n2Dw3gKEgpB4wHDEaMBgGA1UEAwwRRW5vd2FycyBS
b3V0ZXIgQ0GCCQDroZIWEMMLYDATBgNVHSUEDDAKBggrBgEFBQcDAjALBgNVHQ8E
BAMCB4AwDQYJKoZIhvcNAQELBQADggEBAGVK/OdwX1VS69VVlUf/mfqZiws7OHdN
nstJ9kcUUbKTasaQG6+y/qVMG5t0pNkLLTy3Ez8rBc4+TTZp1lsj7YNZ63tNU0io
wtmYDjOicm/rowt16ky5qTdzzTIy65DQ+NRoa+HZ8x5SKxKkI6jjO/dien+oc4dA
SGzhonxX3MRf6K40gLQWO73uBz/FfEn7V3wVdwcZfMSIrZhJEttH3UVmZl0/anB7
fyOOHfAePiQ+h0x/SKaFhsHUzQ9jQEVm0kweGEFpYSY6B6TW8QxzISOM7YiC+qVB
CFWQW8mvZMn3pD0BhcH1pV4nNZ4RjkQ6S+p3d674ORYuC1pctOQ01Ng=
-----END CERTIFICATE-----
